(lp0
ccopy_reg
_reconstructor
p1
(c__main__
User
p2
c__builtin__
object
p3
Ntp4
Rp5
(dp6
S'username'
p7
VUsername 0
p8
sS'surname'
p9
VSurname
p10
sS'name'
p11
VName
p12
sS'rfidtag'
p13
V22
p14
sS'email'
p15
VE-mail
p16
sbag1
(g2
g3
Ntp17
Rp18
(dp19
g7
VUsername 1
p20
sg9
VSurname
p21
sg11
VName
p22
sg13
VRFID Tag
p23
sg15
VE-mail
p24
sba.